; Function Attrs: mustprogress uwtable
define void @_ZN10ImDrawList15AddCircleFilledERK6ImVec2fji(ptr noundef nonnull align 8 captures(none) dereferenceable(216) %0, ptr noundef nonnull readonly align 4 captures(none) dereferenceable(8) %1, float noundef %2, i32 noundef %3, i32 noundef %4) local_unnamed_addr #12 align 2 {
  %6 = icmp ult i32 %3, 16777216
  %7 = fcmp olt float %2, 5.000000e-01
  %or.cond = or i1 %7, %6
  br i1 %or.cond, label %27, label %8

8:                                                ; preds = %5
  %9 = icmp slt i32 %4, 1
  br i1 %9, label %10, label %14

10:                                               ; preds = %8
  tail call void @_ZN10ImDrawList16_PathArcToFastExERK6ImVec2fiii(ptr noundef nonnull align 8 dereferenceable(216) %0, ptr noundef nonnull align 4 dereferenceable(8) %1, float noundef %2, i32 noundef 0, i32 noundef 48, i32 noundef 0)
  %11 = getelementptr inbounds nuw i8, ptr %0, i64 80
  %12 = load i32, ptr %11, align 8, !tbaa !134
  %13 = add nsw i32 %12, -1
  store i32 %13, ptr %11, align 8, !tbaa !134
  br label %22

14:                                               ; preds = %8
  %15 = tail call i32 @llvm.umin.i32(i32 %4, i32 512)
  %16 = tail call i32 @llvm.umax.i32(i32 %15, i32 3)
  %17 = uitofp nneg i32 %16 to float
  %18 = add nsw i32 %16, -1
  %19 = uitofp nneg i32 %18 to float
  %20 = fmul float %19, 0x401921FB60000000
  %21 = fdiv float %20, %17
  tail call void @_ZN10ImDrawList9PathArcToERK6ImVec2fffi(ptr noundef nonnull align 8 dereferenceable(216) %0, ptr noundef nonnull align 4 dereferenceable(8) %1, float noundef %2, float noundef 0.000000e+00, float noundef %21, i32 noundef %18)
  %.phi.trans.insert = getelementptr inbounds nuw i8, ptr %0, i64 80
  %.pre = load i32, ptr %.phi.trans.insert, align 8, !tbaa !134
  br label %22

22:                                               ; preds = %14, %10
  %23 = phi i32 [ %.pre, %14 ], [ %13, %10 ]
  %24 = getelementptr inbounds nuw i8, ptr %0, i64 80
  %25 = getelementptr inbounds nuw i8, ptr %0, i64 88
  %26 = load ptr, ptr %25, align 8, !tbaa !135
  tail call void @_ZN10ImDrawList19AddConvexPolyFilledEPK6ImVec2ij(ptr noundef nonnull align 8 dereferenceable(216) %0, ptr noundef %26, i32 noundef %23, i32 noundef %3)
  store i32 0, ptr %24, align 8, !tbaa !134
  br label %27

27:                                               ; preds = %5, %22
  ret void
}